target datalayout = "e-m:e-p270:32:32-p271:32:32-p272:64:64-i64:64-i128:128-f80:128-n8:16:32:64-S128"
target triple = "x86_64-pc-linux-gnu"

%struct._lv_global_t = type { i8, i8, %struct.lv_ll_t, ptr, ptr, %struct.lv_ll_t, i8, i32, i32, ptr, %struct.lv_ll_t, ptr, %struct.lv_ll_t, ptr, ptr, i32, ptr, i8, i32, i32, ptr, i32, %struct.lv_timer_state_t, %struct.lv_anim_state_t, %struct.lv_tick_state_t, %struct._lv_draw_buf_handlers_t, %struct._lv_draw_buf_handlers_t, %struct._lv_draw_buf_handlers_t, %struct.lv_ll_t, ptr, ptr, %struct.lv_draw_global_info_t, [4 x %struct.lv_draw_sw_mask_radius_circle_dsc_t], ptr, ptr, ptr, %struct.lv_tlsf_state_t, %struct.lv_ll_t, ptr, ptr, %struct.lv_style_t, i64, ptr, i32, ptr }
%struct.lv_timer_state_t = type { %struct.lv_ll_t, i8, i8, i8, i8, i32, i8, i32, i32, i32, i32, ptr, ptr }
%struct.lv_anim_state_t = type { i8, i8, ptr, %struct.lv_ll_t }
%struct.lv_tick_state_t = type { i32, i8, ptr, ptr }
%struct._lv_draw_buf_handlers_t = type { ptr, ptr, ptr, ptr, ptr, ptr }
%struct.lv_draw_global_info_t = type { ptr, i32, i32, i32, i32, i8 }
%struct.lv_draw_sw_mask_radius_circle_dsc_t = type { ptr, ptr, ptr, ptr, i32, i32, i32 }
%struct.lv_tlsf_state_t = type { ptr, i64, i64, %struct.lv_ll_t }
%struct.lv_ll_t = type { i32, ptr, ptr }
%struct.lv_style_t = type { ptr, i32, i8 }
%struct._lv_indev_t = type { i32, ptr, i32, i32, i32, i8, i32, i32, ptr, ptr, ptr, ptr, i8, i8, i8, i8, i16, i16, i32, %struct.anon, %struct.anon.0, ptr, ptr, ptr, %struct.lv_event_list_t, ptr, i32, ptr }
%struct.anon = type { %struct.lv_point_t, %struct.lv_point_t, %struct.lv_point_t, %struct.lv_point_t, %struct.lv_point_t, %struct.lv_point_t, %struct.lv_point_t, ptr, ptr, ptr, ptr, ptr, %struct.lv_area_t, %struct.lv_point_t, i32, i8, %struct.lv_point_t, i32, i16 }
%struct.lv_area_t = type { i32, i32, i32, i32 }
%struct.lv_point_t = type { i32, i32 }
%struct.anon.0 = type { i32, i32 }
%struct.lv_event_list_t = type { %struct._lv_array_t, i8 }
%struct._lv_array_t = type { ptr, i32, i32, i32, i8 }

@lv_global = external global %struct._lv_global_t, align 8

; Function Attrs: inlinehint nounwind uwtable
define internal void @lv_memzero(ptr noundef %0, i64 noundef %1) #3 {
  %3 = alloca ptr, align 8
  %4 = alloca i64, align 8
  store ptr %0, ptr %3, align 8, !tbaa !35
  store i64 %1, ptr %4, align 8, !tbaa !36
  %5 = load ptr, ptr %3, align 8, !tbaa !35
  %6 = load i64, ptr %4, align 8, !tbaa !36
  call void @lv_memset(ptr noundef %5, i8 noundef zeroext 0, i64 noundef %6)
  ret void
}

; Function Attrs: nounwind uwtable
define ptr @lv_indev_create() #0 {
  %1 = alloca ptr, align 8
  %2 = alloca ptr, align 8
  %3 = alloca ptr, align 8
  %4 = alloca i32, align 4
  call void @llvm.lifetime.start.p0(i64 8, ptr %2) #6
  %5 = call ptr @lv_display_get_default()
  store ptr %5, ptr %2, align 8, !tbaa !3
  %6 = load ptr, ptr %2, align 8, !tbaa !3
  %7 = icmp eq ptr %6, null
  br i1 %7, label %8, label %12

8:                                                ; preds = %0
  br label %9

9:                                                ; preds = %8
  br label %10

10:                                               ; preds = %9
  br label %11

11:                                               ; preds = %10
  br label %12

12:                                               ; preds = %11, %0
  call void @llvm.lifetime.start.p0(i64 8, ptr %3) #6
  %13 = call ptr @lv_ll_ins_head(ptr noundef getelementptr inbounds nuw (%struct._lv_global_t, ptr @lv_global, i32 0, i32 12))
  store ptr %13, ptr %3, align 8, !tbaa !8
  br label %14

14:                                               ; preds = %12
  %15 = load ptr, ptr %3, align 8, !tbaa !8
  %16 = icmp ne ptr %15, null
  br i1 %16, label %23, label %17

17:                                               ; preds = %14
  br label %18

18:                                               ; preds = %17
  br label %19

19:                                               ; preds = %18
  br label %20

20:                                               ; preds = %19
  br label %21

21:                                               ; preds = %22, %20
  br label %22

22:                                               ; preds = %21
  br label %21

23:                                               ; preds = %14
  br label %24

24:                                               ; preds = %23
  br label %25

25:                                               ; preds = %24
  %26 = load ptr, ptr %3, align 8, !tbaa !8
  %27 = icmp eq ptr %26, null
  br i1 %27, label %28, label %29

28:                                               ; preds = %25
  store ptr null, ptr %1, align 8
  store i32 1, ptr %4, align 4
  br label %67

29:                                               ; preds = %25
  %30 = load ptr, ptr %3, align 8, !tbaa !8
  call void @lv_memzero(ptr noundef %30, i64 noundef 320)
  %31 = load ptr, ptr %3, align 8, !tbaa !8
  %32 = getelementptr inbounds nuw %struct._lv_indev_t, ptr %31, i32 0, i32 5
  %33 = load i8, ptr %32, align 4
  %34 = and i8 %33, -3
  %35 = or i8 %34, 2
  store i8 %35, ptr %32, align 4
  %36 = load ptr, ptr %3, align 8, !tbaa !8
  %37 = getelementptr inbounds nuw %struct._lv_indev_t, ptr %36, i32 0, i32 5
  %38 = load i8, ptr %37, align 4
  %39 = and i8 %38, -5
  %40 = or i8 %39, 4
  store i8 %40, ptr %37, align 4
  %41 = load ptr, ptr %3, align 8, !tbaa !8
  %42 = call ptr @lv_timer_create(ptr noundef @lv_indev_read_timer_cb, i32 noundef 33, ptr noundef %41)
  %43 = load ptr, ptr %3, align 8, !tbaa !8
  %44 = getelementptr inbounds nuw %struct._lv_indev_t, ptr %43, i32 0, i32 11
  store ptr %42, ptr %44, align 8, !tbaa !10
  %45 = call ptr @lv_display_get_default()
  %46 = load ptr, ptr %3, align 8, !tbaa !8
  %47 = getelementptr inbounds nuw %struct._lv_indev_t, ptr %46, i32 0, i32 10
  store ptr %45, ptr %47, align 8, !tbaa !25
  %48 = load ptr, ptr %3, align 8, !tbaa !8
  %49 = getelementptr inbounds nuw %struct._lv_indev_t, ptr %48, i32 0, i32 0
  store i32 0, ptr %49, align 8, !tbaa !26
  %50 = load ptr, ptr %3, align 8, !tbaa !8
  %51 = getelementptr inbounds nuw %struct._lv_indev_t, ptr %50, i32 0, i32 4
  store i32 1, ptr %51, align 8, !tbaa !27
  %52 = load ptr, ptr %3, align 8, !tbaa !8
  %53 = getelementptr inbounds nuw %struct._lv_indev_t, ptr %52, i32 0, i32 12
  store i8 10, ptr %53, align 8, !tbaa !28
  %54 = load ptr, ptr %3, align 8, !tbaa !8
  %55 = getelementptr inbounds nuw %struct._lv_indev_t, ptr %54, i32 0, i32 13
  store i8 10, ptr %55, align 1, !tbaa !29
  %56 = load ptr, ptr %3, align 8, !tbaa !8
  %57 = getelementptr inbounds nuw %struct._lv_indev_t, ptr %56, i32 0, i32 16
  store i16 400, ptr %57, align 4, !tbaa !30
  %58 = load ptr, ptr %3, align 8, !tbaa !8
  %59 = getelementptr inbounds nuw %struct._lv_indev_t, ptr %58, i32 0, i32 17
  store i16 100, ptr %59, align 2, !tbaa !31
  %60 = load ptr, ptr %3, align 8, !tbaa !8
  %61 = getelementptr inbounds nuw %struct._lv_indev_t, ptr %60, i32 0, i32 15
  store i8 50, ptr %61, align 1, !tbaa !32
  %62 = load ptr, ptr %3, align 8, !tbaa !8
  %63 = getelementptr inbounds nuw %struct._lv_indev_t, ptr %62, i32 0, i32 14
  store i8 3, ptr %63, align 2, !tbaa !33
  %64 = load ptr, ptr %3, align 8, !tbaa !8
  %65 = getelementptr inbounds nuw %struct._lv_indev_t, ptr %64, i32 0, i32 18
  store i32 256, ptr %65, align 8, !tbaa !34
  %66 = load ptr, ptr %3, align 8, !tbaa !8
  store ptr %66, ptr %1, align 8
  store i32 1, ptr %4, align 4
  br label %67

67:                                               ; preds = %29, %28
  call void @llvm.lifetime.end.p0(i64 8, ptr %3) #6
  call void @llvm.lifetime.end.p0(i64 8, ptr %2) #6
  %68 = load ptr, ptr %1, align 8
  ret ptr %68
}