; Function Attrs: nounwind uwtable
define nonnull ptr @lv_indev_create() local_unnamed_addr #0 {
  %1 = tail call ptr @lv_display_get_default() #11
  %2 = tail call ptr @lv_ll_ins_head(ptr noundef nonnull getelementptr inbounds nuw (i8, ptr @lv_global, i64 128)) #11
  %.not = icmp eq ptr %2, null
  br i1 %.not, label %.preheader, label %3

.preheader:                                       ; preds = %0, %.preheader
  br label %.preheader

3:                                                ; preds = %0
  tail call void @lv_memset(ptr noundef nonnull %2, i8 noundef zeroext 0, i64 noundef 320) #11
  %4 = getelementptr inbounds nuw i8, ptr %2, i64 28
  %5 = load i8, ptr %4, align 4
  %6 = or i8 %5, 6
  store i8 %6, ptr %4, align 4
  %7 = tail call ptr @lv_timer_create(ptr noundef nonnull @lv_indev_read_timer_cb, i32 noundef 33, ptr noundef nonnull %2) #11
  %8 = getelementptr inbounds nuw i8, ptr %2, i64 64
  store ptr %7, ptr %8, align 8, !tbaa !3
  %9 = tail call ptr @lv_display_get_default() #11
  %10 = getelementptr inbounds nuw i8, ptr %2, i64 56
  store ptr %9, ptr %10, align 8, !tbaa !22
  store i32 0, ptr %2, align 8, !tbaa !23
  %11 = getelementptr inbounds nuw i8, ptr %2, i64 24
  store i32 1, ptr %11, align 8, !tbaa !24
  %12 = getelementptr inbounds nuw i8, ptr %2, i64 72
  store i8 10, ptr %12, align 8, !tbaa !25
  %13 = getelementptr inbounds nuw i8, ptr %2, i64 73
  store i8 10, ptr %13, align 1, !tbaa !26
  %14 = getelementptr inbounds nuw i8, ptr %2, i64 76
  store i16 400, ptr %14, align 4, !tbaa !27
  %15 = getelementptr inbounds nuw i8, ptr %2, i64 78
  store i16 100, ptr %15, align 2, !tbaa !28
  %16 = getelementptr inbounds nuw i8, ptr %2, i64 75
  store i8 50, ptr %16, align 1, !tbaa !29
  %17 = getelementptr inbounds nuw i8, ptr %2, i64 74
  store i8 3, ptr %17, align 2, !tbaa !30
  %18 = getelementptr inbounds nuw i8, ptr %2, i64 80
  store i32 256, ptr %18, align 8, !tbaa !31
  ret ptr %2
}